target datalayout = "e-m:e-p270:32:32-p271:32:32-p272:64:64-i64:64-i128:128-f80:128-n8:16:32:64-S128"
target triple = "x86_64-pc-linux-gnu"

%struct.asn1_string_st = type { i32, i32, ptr, i64 }
%struct.compare_testdata = type { %struct.asn1_string_st, %struct.asn1_string_st, i32 }

@.str.1 = private unnamed_addr constant [33 x i8] c"../openssl/test/asn1_time_test.c\00", align 1
@.str.117 = private unnamed_addr constant [36 x i8] c"ASN1_TIME_compare(&td->t1, &td->t2)\00", align 1
@.str.118 = private unnamed_addr constant [11 x i8] c"td->result\00", align 1

; Function Attrs: nounwind uwtable
define internal i32 @test_table_compare(i32 noundef %0) #0 {
  %2 = alloca i32, align 4
  %3 = alloca ptr, align 8
  store i32 %0, ptr %2, align 4, !tbaa !11
  call void @llvm.lifetime.start.p0(i64 8, ptr %3) #5
  %4 = load i32, ptr %2, align 4, !tbaa !11
  %5 = sext i32 %4 to i64
  %6 = getelementptr inbounds [16 x %struct.compare_testdata], ptr @tbl_compare_testdata, i64 0, i64 %5
  store ptr %6, ptr %3, align 8, !tbaa !13
  %7 = load ptr, ptr %3, align 8, !tbaa !13
  %8 = getelementptr inbounds nuw %struct.compare_testdata, ptr %7, i32 0, i32 0
  %9 = load ptr, ptr %3, align 8, !tbaa !13
  %10 = getelementptr inbounds nuw %struct.compare_testdata, ptr %9, i32 0, i32 1
  %11 = call i32 @ASN1_TIME_compare(ptr noundef %8, ptr noundef %10)
  %12 = load ptr, ptr %3, align 8, !tbaa !13
  %13 = getelementptr inbounds nuw %struct.compare_testdata, ptr %12, i32 0, i32 2
  %14 = load i32, ptr %13, align 8, !tbaa !15
  %15 = call i32 @test_int_eq(ptr noundef @.str.1, i32 noundef 371, ptr noundef @.str.117, ptr noundef @.str.118, i32 noundef %11, i32 noundef %14)
  call void @llvm.lifetime.end.p0(i64 8, ptr %3) #5
  ret i32 %15
}