; Function Attrs: nounwind uwtable
define internal i32 @test_table_compare(i32 noundef %0) #0 {
  %2 = sext i32 %0 to i64
  %3 = getelementptr inbounds [16 x %struct.compare_testdata], ptr @tbl_compare_testdata, i64 0, i64 %2
  %4 = getelementptr inbounds nuw i8, ptr %3, i64 24
  %5 = tail call i32 @ASN1_TIME_compare(ptr noundef nonnull %3, ptr noundef nonnull %4) #5
  %6 = getelementptr inbounds nuw i8, ptr %3, i64 48
  %7 = load i32, ptr %6, align 8, !tbaa !8
  %8 = tail call i32 @test_int_eq(ptr noundef nonnull @.str.1, i32 noundef 371, ptr noundef nonnull @.str.117, ptr noundef nonnull @.str.118, i32 noundef %5, i32 noundef %7) #5
  ret i32 %8
}